; Function Attrs: mustprogress nounwind uwtable
define internal fastcc void @_ZN12_GLOBAL__N_18PortDataD2Ev(ptr nocapture noundef nonnull align 8 dereferenceable(130) %0) unnamed_addr #3 align 2 personality ptr @__gxx_personality_v0 {
  %2 = getelementptr inbounds i8, ptr %0, i64 88
  %3 = load ptr, ptr %2, align 8
  %.not.i.i.i = icmp eq ptr %3, null
  br i1 %.not.i.i.i, label %_ZNSt6vectorIbSaIbEED2Ev.exit, label %4

4:                                                ; preds = %1
  %5 = getelementptr inbounds i8, ptr %0, i64 120
  %6 = load ptr, ptr %5, align 8
  %7 = ptrtoint ptr %6 to i64
  %8 = ptrtoint ptr %3 to i64
  %9 = sub i64 %7, %8
  %10 = ashr exact i64 %9, 3
  %11 = sub nsw i64 0, %10
  %12 = getelementptr inbounds i64, ptr %6, i64 %11
  tail call void @_ZdlPv(ptr noundef %12) #21
  store ptr null, ptr %2, align 8
  %.sroa.2.0..sroa_idx.i.i.i.i = getelementptr inbounds i8, ptr %0, i64 96
  store i32 0, ptr %.sroa.2.0..sroa_idx.i.i.i.i, align 8
  %.sroa.31.0..sroa_idx.i.i.i.i = getelementptr inbounds i8, ptr %0, i64 104
  store ptr null, ptr %.sroa.31.0..sroa_idx.i.i.i.i, align 8
  %.sroa.4.0..sroa_idx.i.i.i.i = getelementptr inbounds i8, ptr %0, i64 112
  store i32 0, ptr %.sroa.4.0..sroa_idx.i.i.i.i, align 8
  store ptr null, ptr %5, align 8
  br label %_ZNSt6vectorIbSaIbEED2Ev.exit

_ZNSt6vectorIbSaIbEED2Ev.exit:                    ; preds = %1, %4
  %13 = getelementptr inbounds i8, ptr %0, i64 48
  %14 = load ptr, ptr %13, align 8
  %.not.i.i.i1 = icmp eq ptr %14, null
  br i1 %.not.i.i.i1, label %_ZNSt6vectorIbSaIbEED2Ev.exit5, label %15

15:                                               ; preds = %_ZNSt6vectorIbSaIbEED2Ev.exit
  %16 = getelementptr inbounds i8, ptr %0, i64 80
  %17 = load ptr, ptr %16, align 8
  %18 = ptrtoint ptr %17 to i64
  %19 = ptrtoint ptr %14 to i64
  %20 = sub i64 %18, %19
  %21 = ashr exact i64 %20, 3
  %22 = sub nsw i64 0, %21
  %23 = getelementptr inbounds i64, ptr %17, i64 %22
  tail call void @_ZdlPv(ptr noundef %23) #21
  store ptr null, ptr %13, align 8
  %.sroa.2.0..sroa_idx.i.i.i.i2 = getelementptr inbounds i8, ptr %0, i64 56
  store i32 0, ptr %.sroa.2.0..sroa_idx.i.i.i.i2, align 8
  %.sroa.31.0..sroa_idx.i.i.i.i3 = getelementptr inbounds i8, ptr %0, i64 64
  store ptr null, ptr %.sroa.31.0..sroa_idx.i.i.i.i3, align 8
  %.sroa.4.0..sroa_idx.i.i.i.i4 = getelementptr inbounds i8, ptr %0, i64 72
  store i32 0, ptr %.sroa.4.0..sroa_idx.i.i.i.i4, align 8
  store ptr null, ptr %16, align 8
  br label %_ZNSt6vectorIbSaIbEED2Ev.exit5

_ZNSt6vectorIbSaIbEED2Ev.exit5:                   ; preds = %_ZNSt6vectorIbSaIbEED2Ev.exit, %15
  %24 = getelementptr inbounds i8, ptr %0, i64 8
  %25 = load ptr, ptr %24, align 8
  %.not.i.i.i6 = icmp eq ptr %25, null
  br i1 %.not.i.i.i6, label %_ZNSt6vectorIbSaIbEED2Ev.exit10, label %26

26:                                               ; preds = %_ZNSt6vectorIbSaIbEED2Ev.exit5
  %27 = getelementptr inbounds i8, ptr %0, i64 40
  %28 = load ptr, ptr %27, align 8
  %29 = ptrtoint ptr %28 to i64
  %30 = ptrtoint ptr %25 to i64
  %31 = sub i64 %29, %30
  %32 = ashr exact i64 %31, 3
  %33 = sub nsw i64 0, %32
  %34 = getelementptr inbounds i64, ptr %28, i64 %33
  tail call void @_ZdlPv(ptr noundef %34) #21
  store ptr null, ptr %24, align 8
  %.sroa.2.0..sroa_idx.i.i.i.i7 = getelementptr inbounds i8, ptr %0, i64 16
  store i32 0, ptr %.sroa.2.0..sroa_idx.i.i.i.i7, align 8
  %.sroa.31.0..sroa_idx.i.i.i.i8 = getelementptr inbounds i8, ptr %0, i64 24
  store ptr null, ptr %.sroa.31.0..sroa_idx.i.i.i.i8, align 8
  %.sroa.4.0..sroa_idx.i.i.i.i9 = getelementptr inbounds i8, ptr %0, i64 32
  store i32 0, ptr %.sroa.4.0..sroa_idx.i.i.i.i9, align 8
  store ptr null, ptr %27, align 8
  br label %_ZNSt6vectorIbSaIbEED2Ev.exit10

_ZNSt6vectorIbSaIbEED2Ev.exit10:                  ; preds = %_ZNSt6vectorIbSaIbEED2Ev.exit5, %26
  ret void
}